target datalayout = "e-m:e-p270:32:32-p271:32:32-p272:64:64-i64:64-i128:128-f80:128-n8:16:32:64-S128"
target triple = "x86_64-pc-linux-gnu"

%struct.evp_test_st = type { %struct.stanza_st, ptr, i32, ptr, ptr, ptr, ptr, ptr, ptr, i32 }
%struct.stanza_st = type { ptr, ptr, i32, i32, i32, i32, i32, i32, [150 x %struct.pair_st], ptr, [32768 x i8] }
%struct.pair_st = type { ptr, ptr }
%struct.ossl_param_st = type { ptr, i32, ptr, i64, i64 }
%struct.kem_data_st = type { ptr, ptr, ptr, i64, ptr, i64, ptr, ptr, ptr, ptr, i64, ptr, i64, ptr, i64, ptr, i64 }

@.str.29 = private unnamed_addr constant [27 x i8] c"../openssl/test/evp_test.c\00", align 1
@.str.213 = private unnamed_addr constant [9 x i8] c"expected\00", align 1
@.str.469 = private unnamed_addr constant [22 x i8] c"TEST_SET_KEM_OP_ERROR\00", align 1
@.str.475 = private unnamed_addr constant [28 x i8] c"TEST_DECAPSULATE_INIT_ERROR\00", align 1
@.str.476 = private unnamed_addr constant [27 x i8] c"TEST_DECAPSULATE_LEN_ERROR\00", align 1
@.str.477 = private unnamed_addr constant [29 x i8] c"out = OPENSSL_malloc(outlen)\00", align 1
@.str.478 = private unnamed_addr constant [23 x i8] c"TEST_DECAPSULATE_ERROR\00", align 1
@.str.479 = private unnamed_addr constant [4 x i8] c"out\00", align 1
@.str.480 = private unnamed_addr constant [21 x i8] c"TEST_SECRET_MISMATCH\00", align 1

; Function Attrs: nounwind uwtable
define internal void @ctrl2params_free(ptr noundef %0, i64 noundef %1, i64 noundef %2) #0 {
  %4 = alloca ptr, align 8
  %5 = alloca i64, align 8
  %6 = alloca i64, align 8
  store ptr %0, ptr %4, align 8, !tbaa !33
  store i64 %1, ptr %5, align 8, !tbaa !13
  store i64 %2, ptr %6, align 8, !tbaa !13
  br label %7

7:                                                ; preds = %12, %3
  %8 = load i64, ptr %5, align 8, !tbaa !13
  %9 = add i64 %8, -1
  store i64 %9, ptr %5, align 8, !tbaa !13
  %10 = load i64, ptr %6, align 8, !tbaa !13
  %11 = icmp ugt i64 %8, %10
  br i1 %11, label %12, label %18

12:                                               ; preds = %7
  %13 = load ptr, ptr %4, align 8, !tbaa !33
  %14 = load i64, ptr %5, align 8, !tbaa !13
  %15 = getelementptr inbounds nuw %struct.ossl_param_st, ptr %13, i64 %14
  %16 = getelementptr inbounds nuw %struct.ossl_param_st, ptr %15, i32 0, i32 2
  %17 = load ptr, ptr %16, align 8, !tbaa !133
  call void @CRYPTO_free(ptr noundef %17, ptr noundef @.str.29, i32 noundef 291)
  br label %7, !llvm.loop !135

18:                                               ; preds = %7
  ret void
}

; Function Attrs: inlinehint nounwind uwtable
define internal ptr @ossl_check_const_OPENSSL_STRING_sk_type(ptr noundef %0) #5 {
  %2 = alloca ptr, align 8
  store ptr %0, ptr %2, align 8, !tbaa !131
  %3 = load ptr, ptr %2, align 8, !tbaa !131
  ret ptr %3
}

; Function Attrs: nounwind uwtable
define internal i32 @decapsulate(ptr noundef %0, ptr noundef %1, ptr noundef %2, ptr noundef %3, i64 noundef %4, ptr noundef %5, i64 noundef %6) #0 {
  %8 = alloca ptr, align 8
  %9 = alloca ptr, align 8
  %10 = alloca ptr, align 8
  %11 = alloca ptr, align 8
  %12 = alloca i64, align 8
  %13 = alloca ptr, align 8
  %14 = alloca i64, align 8
  %15 = alloca i32, align 4
  %16 = alloca ptr, align 8
  %17 = alloca i64, align 8
  %18 = alloca ptr, align 8
  %19 = alloca [2 x %struct.ossl_param_st], align 16
  %20 = alloca ptr, align 8
  %21 = alloca i64, align 8
  %22 = alloca i64, align 8
  store ptr %0, ptr %8, align 8, !tbaa !15
  store ptr %1, ptr %9, align 8, !tbaa !229
  store ptr %2, ptr %10, align 8, !tbaa !4
  store ptr %3, ptr %11, align 8, !tbaa !4
  store i64 %4, ptr %12, align 8, !tbaa !13
  store ptr %5, ptr %13, align 8, !tbaa !4
  store i64 %6, ptr %14, align 8, !tbaa !13
  call void @llvm.lifetime.start.p0(i64 4, ptr %15) #10
  store i32 0, ptr %15, align 4, !tbaa !9
  call void @llvm.lifetime.start.p0(i64 8, ptr %16) #10
  %23 = load ptr, ptr %8, align 8, !tbaa !15
  %24 = getelementptr inbounds nuw %struct.evp_test_st, ptr %23, i32 0, i32 8
  %25 = load ptr, ptr %24, align 8, !tbaa !66
  store ptr %25, ptr %16, align 8, !tbaa !364
  call void @llvm.lifetime.start.p0(i64 8, ptr %17) #10
  store i64 0, ptr %17, align 8, !tbaa !13
  call void @llvm.lifetime.start.p0(i64 8, ptr %18) #10
  store ptr null, ptr %18, align 8, !tbaa !4
  call void @llvm.lifetime.start.p0(i64 80, ptr %19) #10
  call void @llvm.memset.p0.i64(ptr align 16 %19, i8 0, i64 80, i1 false)
  call void @llvm.lifetime.start.p0(i64 8, ptr %20) #10
  store ptr null, ptr %20, align 8, !tbaa !33
  call void @llvm.lifetime.start.p0(i64 8, ptr %21) #10
  store i64 0, ptr %21, align 8, !tbaa !13
  call void @llvm.lifetime.start.p0(i64 8, ptr %22) #10
  store i64 0, ptr %22, align 8, !tbaa !13
  %26 = load ptr, ptr %16, align 8, !tbaa !364
  %27 = getelementptr inbounds nuw %struct.kem_data_st, ptr %26, i32 0, i32 6
  %28 = load ptr, ptr %27, align 8, !tbaa !368
  %29 = call ptr @ossl_check_const_OPENSSL_STRING_sk_type(ptr noundef %28)
  %30 = call i32 @OPENSSL_sk_num(ptr noundef %29)
  %31 = icmp sgt i32 %30, 0
  br i1 %31, label %32, label %43

32:                                               ; preds = %7
  %33 = load ptr, ptr %8, align 8, !tbaa !15
  %34 = load ptr, ptr %16, align 8, !tbaa !364
  %35 = getelementptr inbounds nuw %struct.kem_data_st, ptr %34, i32 0, i32 6
  %36 = load ptr, ptr %35, align 8, !tbaa !368
  %37 = getelementptr inbounds [2 x %struct.ossl_param_st], ptr %19, i64 0, i64 0
  %38 = call i32 @ctrl2params(ptr noundef %33, ptr noundef %36, ptr noundef null, ptr noundef %37, i64 noundef 2, ptr noundef %21)
  %39 = icmp ne i32 %38, 0
  br i1 %39, label %41, label %40

40:                                               ; preds = %32
  br label %100

41:                                               ; preds = %32
  %42 = getelementptr inbounds [2 x %struct.ossl_param_st], ptr %19, i64 0, i64 0
  store ptr %42, ptr %20, align 8, !tbaa !33
  br label %43

43:                                               ; preds = %41, %7
  %44 = load ptr, ptr %9, align 8, !tbaa !229
  %45 = load ptr, ptr %20, align 8, !tbaa !33
  %46 = call i32 @EVP_PKEY_decapsulate_init(ptr noundef %44, ptr noundef %45)
  %47 = icmp sle i32 %46, 0
  br i1 %47, label %48, label %51

48:                                               ; preds = %43
  %49 = load ptr, ptr %8, align 8, !tbaa !15
  %50 = getelementptr inbounds nuw %struct.evp_test_st, ptr %49, i32 0, i32 4
  store ptr @.str.475, ptr %50, align 8, !tbaa !63
  br label %100

51:                                               ; preds = %43
  %52 = load ptr, ptr %10, align 8, !tbaa !4
  %53 = icmp ne ptr %52, null
  br i1 %53, label %54, label %62

54:                                               ; preds = %51
  %55 = load ptr, ptr %9, align 8, !tbaa !229
  %56 = load ptr, ptr %10, align 8, !tbaa !4
  %57 = call i32 @EVP_PKEY_CTX_set_kem_op(ptr noundef %55, ptr noundef %56)
  %58 = icmp sle i32 %57, 0
  br i1 %58, label %59, label %62

59:                                               ; preds = %54
  %60 = load ptr, ptr %8, align 8, !tbaa !15
  %61 = getelementptr inbounds nuw %struct.evp_test_st, ptr %60, i32 0, i32 4
  store ptr @.str.469, ptr %61, align 8, !tbaa !63
  br label %100

62:                                               ; preds = %54, %51
  %63 = load ptr, ptr %9, align 8, !tbaa !229
  %64 = load ptr, ptr %11, align 8, !tbaa !4
  %65 = load i64, ptr %12, align 8, !tbaa !13
  %66 = call i32 @EVP_PKEY_decapsulate(ptr noundef %63, ptr noundef null, ptr noundef %17, ptr noundef %64, i64 noundef %65)
  %67 = icmp sle i32 %66, 0
  br i1 %67, label %68, label %71

68:                                               ; preds = %62
  %69 = load ptr, ptr %8, align 8, !tbaa !15
  %70 = getelementptr inbounds nuw %struct.evp_test_st, ptr %69, i32 0, i32 4
  store ptr @.str.476, ptr %70, align 8, !tbaa !63
  br label %100

71:                                               ; preds = %62
  %72 = load i64, ptr %17, align 8, !tbaa !13
  %73 = call noalias ptr @CRYPTO_malloc(i64 noundef %72, ptr noundef @.str.29, i32 noundef 2335)
  store ptr %73, ptr %18, align 8, !tbaa !4
  %74 = call i32 @test_ptr(ptr noundef @.str.29, i32 noundef 2335, ptr noundef @.str.477, ptr noundef %73)
  %75 = icmp ne i32 %74, 0
  br i1 %75, label %77, label %76

76:                                               ; preds = %71
  store i32 0, ptr %15, align 4, !tbaa !9
  br label %100

77:                                               ; preds = %71
  %78 = load ptr, ptr %9, align 8, !tbaa !229
  %79 = load ptr, ptr %18, align 8, !tbaa !4
  %80 = load ptr, ptr %11, align 8, !tbaa !4
  %81 = load i64, ptr %12, align 8, !tbaa !13
  %82 = call i32 @EVP_PKEY_decapsulate(ptr noundef %78, ptr noundef %79, ptr noundef %17, ptr noundef %80, i64 noundef %81)
  %83 = icmp sle i32 %82, 0
  br i1 %83, label %84, label %87

84:                                               ; preds = %77
  %85 = load ptr, ptr %8, align 8, !tbaa !15
  %86 = getelementptr inbounds nuw %struct.evp_test_st, ptr %85, i32 0, i32 4
  store ptr @.str.478, ptr %86, align 8, !tbaa !63
  br label %100

87:                                               ; preds = %77
  %88 = load ptr, ptr %18, align 8, !tbaa !4
  %89 = load i64, ptr %17, align 8, !tbaa !13
  %90 = load ptr, ptr %13, align 8, !tbaa !4
  %91 = load i64, ptr %14, align 8, !tbaa !13
  %92 = call i32 @test_mem_eq(ptr noundef @.str.29, i32 noundef 2344, ptr noundef @.str.479, ptr noundef @.str.213, ptr noundef %88, i64 noundef %89, ptr noundef %90, i64 noundef %91)
  %93 = icmp ne i32 %92, 0
  br i1 %93, label %97, label %94

94:                                               ; preds = %87
  %95 = load ptr, ptr %8, align 8, !tbaa !15
  %96 = getelementptr inbounds nuw %struct.evp_test_st, ptr %95, i32 0, i32 4
  store ptr @.str.480, ptr %96, align 8, !tbaa !63
  br label %100

97:                                               ; preds = %87
  %98 = load ptr, ptr %8, align 8, !tbaa !15
  %99 = getelementptr inbounds nuw %struct.evp_test_st, ptr %98, i32 0, i32 4
  store ptr null, ptr %99, align 8, !tbaa !63
  store i32 1, ptr %15, align 4, !tbaa !9
  br label %100

100:                                              ; preds = %97, %94, %84, %76, %68, %59, %48, %40
  %101 = load ptr, ptr %18, align 8, !tbaa !4
  call void @CRYPTO_free(ptr noundef %101, ptr noundef @.str.29, i32 noundef 2351)
  %102 = load ptr, ptr %16, align 8, !tbaa !364
  %103 = getelementptr inbounds nuw %struct.kem_data_st, ptr %102, i32 0, i32 6
  %104 = load ptr, ptr %103, align 8, !tbaa !368
  %105 = call ptr @ossl_check_const_OPENSSL_STRING_sk_type(ptr noundef %104)
  %106 = call i32 @OPENSSL_sk_num(ptr noundef %105)
  %107 = icmp sgt i32 %106, 0
  br i1 %107, label %108, label %112

108:                                              ; preds = %100
  %109 = getelementptr inbounds [2 x %struct.ossl_param_st], ptr %19, i64 0, i64 0
  %110 = load i64, ptr %21, align 8, !tbaa !13
  %111 = load i64, ptr %22, align 8, !tbaa !13
  call void @ctrl2params_free(ptr noundef %109, i64 noundef %110, i64 noundef %111)
  br label %112

112:                                              ; preds = %108, %100
  %113 = load i32, ptr %15, align 4, !tbaa !9
  call void @llvm.lifetime.end.p0(i64 8, ptr %22) #10
  call void @llvm.lifetime.end.p0(i64 8, ptr %21) #10
  call void @llvm.lifetime.end.p0(i64 8, ptr %20) #10
  call void @llvm.lifetime.end.p0(i64 80, ptr %19) #10
  call void @llvm.lifetime.end.p0(i64 8, ptr %18) #10
  call void @llvm.lifetime.end.p0(i64 8, ptr %17) #10
  call void @llvm.lifetime.end.p0(i64 8, ptr %16) #10
  call void @llvm.lifetime.end.p0(i64 4, ptr %15) #10
  ret i32 %113
}