; Function Attrs: nounwind uwtable
define internal fastcc void @decapsulate(ptr noundef captures(none) %0, ptr noundef %1, ptr noundef %2, ptr noundef %3, i64 noundef %4, ptr noundef %5, i64 noundef %6) unnamed_addr #1 {
  %8 = alloca i64, align 8
  %9 = alloca [2 x %struct.ossl_param_st], align 16
  %10 = alloca i64, align 8
  %11 = getelementptr inbounds nuw i8, ptr %0, i64 35272
  %12 = load ptr, ptr %11, align 8, !tbaa !20
  call void @llvm.lifetime.start.p0(i64 8, ptr nonnull %8) #10
  store i64 0, ptr %8, align 8, !tbaa !35
  call void @llvm.lifetime.start.p0(i64 80, ptr nonnull %9) #10
  call void @llvm.memset.p0.i64(ptr noundef nonnull align 16 dereferenceable(80) %9, i8 0, i64 80, i1 false)
  call void @llvm.lifetime.start.p0(i64 8, ptr nonnull %10) #10
  store i64 0, ptr %10, align 8, !tbaa !35
  %13 = getelementptr inbounds nuw i8, ptr %12, i64 48
  %14 = load ptr, ptr %13, align 8, !tbaa !302
  %15 = tail call i32 @OPENSSL_sk_num(ptr noundef %14) #10
  %16 = icmp sgt i32 %15, 0
  br i1 %16, label %17, label %20

17:                                               ; preds = %7
  %18 = load ptr, ptr %13, align 8, !tbaa !302
  %19 = call fastcc i32 @ctrl2params(ptr noundef nonnull %0, ptr noundef %18, ptr noundef null, ptr noundef %9, i64 noundef 2, ptr noundef %10)
  %.not = icmp eq i32 %19, 0
  br i1 %.not, label %51, label %20

20:                                               ; preds = %17, %7
  %.028 = phi ptr [ null, %7 ], [ %9, %17 ]
  %21 = call i32 @EVP_PKEY_decapsulate_init(ptr noundef %1, ptr noundef %.028) #10
  %22 = icmp slt i32 %21, 1
  br i1 %22, label %23, label %25

23:                                               ; preds = %20
  %24 = getelementptr inbounds nuw i8, ptr %0, i64 35240
  store ptr @.str.475, ptr %24, align 8, !tbaa !64
  br label %51

25:                                               ; preds = %20
  %.not31 = icmp eq ptr %2, null
  br i1 %.not31, label %31, label %26

26:                                               ; preds = %25
  %27 = call i32 @EVP_PKEY_CTX_set_kem_op(ptr noundef %1, ptr noundef nonnull %2) #10
  %28 = icmp slt i32 %27, 1
  br i1 %28, label %29, label %31

29:                                               ; preds = %26
  %30 = getelementptr inbounds nuw i8, ptr %0, i64 35240
  store ptr @.str.469, ptr %30, align 8, !tbaa !64
  br label %51

31:                                               ; preds = %26, %25
  %32 = call i32 @EVP_PKEY_decapsulate(ptr noundef %1, ptr noundef null, ptr noundef nonnull %8, ptr noundef %3, i64 noundef %4) #10
  %33 = icmp slt i32 %32, 1
  br i1 %33, label %34, label %36

34:                                               ; preds = %31
  %35 = getelementptr inbounds nuw i8, ptr %0, i64 35240
  store ptr @.str.476, ptr %35, align 8, !tbaa !64
  br label %51

36:                                               ; preds = %31
  %37 = load i64, ptr %8, align 8, !tbaa !35
  %38 = call noalias ptr @CRYPTO_malloc(i64 noundef %37, ptr noundef nonnull @.str.29, i32 noundef 2335) #10
  %39 = call i32 @test_ptr(ptr noundef nonnull @.str.29, i32 noundef 2335, ptr noundef nonnull @.str.477, ptr noundef %38) #10
  %.not32 = icmp eq i32 %39, 0
  br i1 %.not32, label %51, label %40

40:                                               ; preds = %36
  %41 = call i32 @EVP_PKEY_decapsulate(ptr noundef %1, ptr noundef %38, ptr noundef nonnull %8, ptr noundef %3, i64 noundef %4) #10
  %42 = icmp slt i32 %41, 1
  br i1 %42, label %43, label %45

43:                                               ; preds = %40
  %44 = getelementptr inbounds nuw i8, ptr %0, i64 35240
  store ptr @.str.478, ptr %44, align 8, !tbaa !64
  br label %51

45:                                               ; preds = %40
  %46 = load i64, ptr %8, align 8, !tbaa !35
  %47 = call i32 @test_mem_eq(ptr noundef nonnull @.str.29, i32 noundef 2344, ptr noundef nonnull @.str.479, ptr noundef nonnull @.str.213, ptr noundef %38, i64 noundef %46, ptr noundef %5, i64 noundef %6) #10
  %.not33 = icmp eq i32 %47, 0
  %48 = getelementptr inbounds nuw i8, ptr %0, i64 35240
  br i1 %.not33, label %49, label %50

49:                                               ; preds = %45
  store ptr @.str.480, ptr %48, align 8, !tbaa !64
  br label %51

50:                                               ; preds = %45
  store ptr null, ptr %48, align 8, !tbaa !64
  br label %51

51:                                               ; preds = %36, %17, %50, %49, %43, %34, %29, %23
  %.029 = phi ptr [ null, %23 ], [ null, %29 ], [ null, %34 ], [ %38, %43 ], [ %38, %50 ], [ %38, %49 ], [ null, %17 ], [ %38, %36 ]
  call void @CRYPTO_free(ptr noundef %.029, ptr noundef nonnull @.str.29, i32 noundef 2351) #10
  %52 = load ptr, ptr %13, align 8, !tbaa !302
  %53 = call i32 @OPENSSL_sk_num(ptr noundef %52) #10
  %54 = icmp sgt i32 %53, 0
  %55 = load i64, ptr %10, align 8
  %56 = icmp ne i64 %55, 0
  %or.cond = select i1 %54, i1 %56, i1 false
  br i1 %or.cond, label %.lr.ph.i, label %ctrl2params_free.exit

.lr.ph.i:                                         ; preds = %51, %.lr.ph.i
  %.03.i = phi i64 [ %57, %.lr.ph.i ], [ %55, %51 ]
  %57 = add i64 %.03.i, -1
  %58 = getelementptr inbounds nuw %struct.ossl_param_st, ptr %9, i64 %57, i32 2
  %59 = load ptr, ptr %58, align 8, !tbaa !98
  call void @CRYPTO_free(ptr noundef %59, ptr noundef nonnull @.str.29, i32 noundef 291) #10
  %.not35 = icmp eq i64 %57, 0
  br i1 %.not35, label %ctrl2params_free.exit, label %.lr.ph.i, !llvm.loop !100

ctrl2params_free.exit:                            ; preds = %.lr.ph.i, %51
  call void @llvm.lifetime.end.p0(i64 8, ptr nonnull %10) #10
  call void @llvm.lifetime.end.p0(i64 80, ptr nonnull %9) #10
  call void @llvm.lifetime.end.p0(i64 8, ptr nonnull %8) #10
  ret void
}